(dp0
S'CHANGE_GLOBAL_HOST_EVENT_HANDLER'
p1
(dp2
S'params'
p3
(lp4
S'event_handler_command'
p5
asS'description'
p6
S'Changes the global host event handler command to be that specified by the "event_handler_command" option.  The "event_handler_command" option specifies the short name of the command that should be used as the new host event handler.  The command must have been configured in Nagios before it was last (re)started.'
p7
ssS'DELAY_SVC_NOTIFICATION'
p8
(dp9
g3
(lp10
S'host_name'
p11
aS'service_description'
p12
aS'notification_time'
p13
asg6
S'Delays the next notification for a parciular service until "notification_time".  The "notification_time" argument is specified in time_t format (seconds since the UNIX epoch).  Note that this will only have an affect if the service stays in the same problem state that it is currently in.  If the service changes to another state, a new notification may go out before the time you specify in the "notification_time" argument.'
p14
ssS'CHANGE_CONTACT_HOST_NOTIFICATION_TIMEPERIOD'
p15
(dp16
g3
(lp17
S'contact_name'
p18
aS'notification_timeperiod'
p19
asg6
S'Changes the host notification timeperiod for a particular contact to what is specified by the "notification_timeperiod" option.  The "notification_timeperiod" option should be the short name of the timeperiod that is to be used as the contact\'s host notification timeperiod.  The timeperiod must have been configured in Nagios before it was last (re)started.'
p20
ssS'DISABLE_HOST_EVENT_HANDLER'
p21
(dp22
g3
(lp23
S'host_name'
p24
asg6
S'Disables the event handler for the specified host.'
p25
ssS'SCHEDULE_HOST_SVC_CHECKS'
p26
(dp27
g3
(lp28
S'host_name'
p29
aS'check_time'
p30
asg6
S'Schedules the next active check of all services on a particular host at "check_time".  The "check_time" argument is specified in time_t format (seconds since the UNIX epoch).  Note that the services may not actually be checked at the time you specify.  This could occur for a number of reasons: active checks are disabled on a program-wide or service-specific basis, the services are already scheduled to be checked at an earlier time, etc.  If you want to force the service checks to occur at the time you specify, look at the SCHEDULE_FORCED_HOST_SVC_CHECKS command.'
p31
ssS'ENABLE_HOSTGROUP_PASSIVE_SVC_CHECKS'
p32
(dp33
g3
(lp34
S'hostgroup_name'
p35
asg6
S'Enables passive checks for all services associated with hosts in a particular hostgroup.'
p36
ssS'DISABLE_HOST_NOTIFICATIONS'
p37
(dp38
g3
(lp39
S'host_name'
p40
asg6
S'Disables notifications for a particular host.'
p41
ssS'DISABLE_FAILURE_PREDICTION'
p42
(dp43
g3
(lp44
sg6
S'Disables failure prediction on a program-wide basis.  This feature is not currently implemented in Nagios.'
p45
ssS'DISABLE_CONTACTGROUP_SVC_NOTIFICATIONS'
p46
(dp47
g3
(lp48
S'contactgroup_name'
p49
asg6
S'Disables service notifications for all contacts in a particular contactgroup.'
p50
ssS'CHANGE_SVC_CHECK_TIMEPERIOD'
p51
(dp52
g3
(lp53
S'host_name'
p54
aS'service_description'
p55
aS'check_timeperiod'
p56
asg6
S'Changes the check timeperiod for a particular service to what is specified by the "check_timeperiod" option.  The "check_timeperiod" option should be the short name of the timeperod that is to be used as the service check timeperiod.  The timeperiod must have been configured in Nagios before it was last (re)started.'
p57
ssS'ENABLE_CONTACTGROUP_HOST_NOTIFICATIONS'
p58
(dp59
g3
(lp60
S'contactgroup_name'
p61
asg6
S'Enables host notifications for all contacts in a particular contactgroup.'
p62
ssS'CHANGE_MAX_SVC_CHECK_ATTEMPTS'
p63
(dp64
g3
(lp65
S'host_name'
p66
aS'service_description'
p67
aS'check_attempts'
p68
asg6
S'Changes the maximum number of check attempts (retries) for a particular service.'
p69
ssS'ENABLE_SERVICEGROUP_PASSIVE_HOST_CHECKS'
p70
(dp71
g3
(lp72
S'servicegroup_name'
p73
asg6
S'Enables the acceptance and processing of passive checks for all hosts that have services that are members of a particular service group.'
p74
ssS'ENABLE_HOST_SVC_CHECKS'
p75
(dp76
g3
(lp77
S'host_name'
p78
asg6
S'Enables active checks of all services on the specified host.'
p79
ssS'DISABLE_SERVICE_FLAP_DETECTION'
p80
(dp81
g3
(lp82
S'host_name'
p83
aS'service_description'
p84
asg6
S'Disables flap detection for the specified service.'
p85
ssS'DISABLE_HOST_FRESHNESS_CHECKS'
p86
(dp87
g3
(lp88
sg6
S'Disables freshness checks of all hosts on a program-wide basis.'
p89
ssS'CHANGE_HOST_CHECK_COMMAND'
p90
(dp91
g3
(lp92
S'host_name'
p93
aS'check_command'
p94
asg6
S'Changes the check command for a particular host to be that specified by the "check_command" option.  The "check_command" option specifies the short name of the command that should be used as the new host check command.  The command must have been configured in Nagios before it was last (re)started.'
p95
ssS'ENABLE_PASSIVE_HOST_CHECKS'
p96
(dp97
g3
(lp98
S'host_name'
p99
asg6
S'Enables acceptance and processing of passive host checks for the specified host.'
p100
ssS'CHANGE_SVC_EVENT_HANDLER'
p101
(dp102
g3
(lp103
S'host_name'
p104
aS'service_description'
p105
aS'event_handler_command'
p106
asg6
S'Changes the event handler command for a particular service to be that specified by the "event_handler_command" option.  The "event_handler_command" option specifies the short name of the command that should be used as the new service event handler.  The command must have been configured in Nagios before it was last (re)started.'
p107
ssS'DISABLE_HOST_AND_CHILD_NOTIFICATIONS'
p108
(dp109
g3
(lp110
S'host_name'
p111
asg6
S'Disables notifications for the specified host, as well as all hosts "beyond" (e.g. on all child hosts of) the specified host.'
p112
ssS'DISABLE_SERVICEGROUP_HOST_CHECKS'
p113
(dp114
g3
(lp115
S'servicegroup_name'
p116
asg6
S'Disables active checks for all hosts that have services that are members of a particular hostgroup.'
p117
ssS'CHANGE_RETRY_SVC_CHECK_INTERVAL'
p118
(dp119
g3
(lp120
S'host_name'
p121
aS'service_description'
p122
aS'check_interval'
p123
asg6
S'Changes the retry check interval for a particular service.'
p124
ssS'DISABLE_HOST_FLAP_DETECTION'
p125
(dp126
g3
(lp127
S'host_name'
p128
asg6
S'Disables flap detection for the specified host.'
p129
ssS'ACKNOWLEDGE_SVC_PROBLEM'
p130
(dp131
g3
(lp132
S'host_name'
p133
aS'service_description'
p134
aS'sticky'
p135
aS'notify'
p136
aS'persistent'
p137
aS'author'
p138
aS'comment'
p139
asg6
S'Allows you to acknowledge the current problem for the specified service.  By acknowledging the current problem, future notifications (for the same servicestate) are disabled.  If the "sticky" option is set to one (1), the acknowledgement will remain until the service returns to an OK state.  Otherwise the acknowledgement will automatically be removed when the service changes state.  If the "notify" option is set to one (1), a notification will be sent out to contacts indicating that the current service problem has been acknowledged.  If the "persistent" option is set to one (1), the comment associated with the acknowledgement will survive across restarts of the Nagios process.  If not, the comment will be deleted the next time Nagios restarts.'
p140
ssS'DISABLE_HOST_SVC_NOTIFICATIONS'
p141
(dp142
g3
(lp143
S'host_name'
p144
asg6
S'Disables notifications for all services on the specified host.'
p145
ssS'ENABLE_HOST_CHECK'
p146
(dp147
g3
(lp148
S'host_name'
p149
asg6
S'Enables (regularly scheduled and on-demand) active checks of the specified host.'
p150
ssS'DISABLE_HOSTGROUP_PASSIVE_HOST_CHECKS'
p151
(dp152
g3
(lp153
S'hostgroup_name'
p154
asg6
S'Disables passive checks for all hosts in a particular hostgroup.'
p155
ssS'ENABLE_FAILURE_PREDICTION'
p156
(dp157
g3
(lp158
sg6
S'Enables failure prediction on a program-wide basis.  This feature is not currently implemented in Nagios.'
p159
ssS'SCHEDULE_HOST_SVC_DOWNTIME'
p160
(dp161
g3
(lp162
S'host_name'
p163
aS'start_time'
p164
aS'end_time'
p165
aS'fixed'
p166
aS'trigger_id'
p167
aS'duration'
p168
aS'author'
p169
aS'comment'
p170
asg6
S'Schedules downtime for all services associated with a particular host.  If the "fixed" argument is set to one (1), downtime will start and end at the times specified by the "start" and "end" arguments.  Otherwise, downtime will begin between the "start" and "end" times and last for "duration" seconds.  The "start" and "end" arguments are specified in time_t format (seconds since the UNIX epoch).  The service downtime entries can be triggered by another downtime entry if the "trigger_id" is set to the ID of another scheduled downtime entry.  Set the "trigger_id" argument to zero (0) if the downtime for the services should not be triggered by another downtime entry.'
p171
ssS'STOP_OBSESSING_OVER_HOST_CHECKS'
p172
(dp173
g3
(lp174
sg6
S'Disables processing of host checks via the OCHP command on a program-wide basis.'
p175
ssS'DISABLE_HOST_CHECK'
p176
(dp177
g3
(lp178
S'host_name'
p179
asg6
S'Disables (regularly scheduled and on-demand) active checks of the specified host.'
p180
ssS'DISABLE_HOSTGROUP_HOST_NOTIFICATIONS'
p181
(dp182
g3
(lp183
S'hostgroup_name'
p184
asg6
S'Disables notifications for all hosts in a particular hostgroup.  This does not disable notifications for the services associated with the hosts in the hostgroup - see the DISABLE_HOSTGROUP_SVC_NOTIFICATIONS command for that.'
p185
ssS'ENABLE_CONTACT_HOST_NOTIFICATIONS'
p186
(dp187
g3
(lp188
S'contact_name'
p189
asg6
S'Enables host notifications for a particular contact.'
p190
ssS'START_OBSESSING_OVER_SVC_CHECKS'
p191
(dp192
g3
(lp193
sg6
S'Enables processing of service checks via the OCSP command on a program-wide basis.'
p194
ssS'DISABLE_HOSTGROUP_SVC_NOTIFICATIONS'
p195
(dp196
g3
(lp197
S'hostgroup_name'
p198
asg6
S'Disables notifications for all services associated with hosts in a particular hostgroup.  This does not disable notifications for the hosts in the hostgroup - see the DISABLE_HOSTGROUP_HOST_NOTIFICATIONS command for that.'
p199
ssS'CHANGE_CUSTOM_SVC_VAR'
p200
(dp201
g3
(lp202
S'host_name'
p203
aS'service_description'
p204
aS'varname'
p205
aS'varvalue'
p206
asg6
S'Changes the value of a custom service variable.'
p207
ssS'DISABLE_NOTIFICATIONS'
p208
(dp209
g3
(lp210
sg6
S'Disables host and service notifications on a program-wide basis.'
p211
ssS'DISABLE_SERVICEGROUP_PASSIVE_SVC_CHECKS'
p212
(dp213
g3
(lp214
S'servicegroup_name'
p215
asg6
S'Disables the acceptance and processing of passive checks for all services in a particular servicegroup.'
p216
ssS'ENABLE_CONTACT_SVC_NOTIFICATIONS'
p217
(dp218
g3
(lp219
S'contact_name'
p220
asg6
S'Disables service notifications for a particular contact.'
p221
ssS'ENABLE_SVC_CHECK'
p222
(dp223
g3
(lp224
S'host_name'
p225
aS'service_description'
p226
asg6
S'Enables active checks for a particular service.'
p227
ssS'ENABLE_HOST_AND_CHILD_NOTIFICATIONS'
p228
(dp229
g3
(lp230
S'host_name'
p231
asg6
S'Enables notifications for the specified host, as well as all hosts "beyond" (e.g. on all child hosts of) the specified host.  Notifications will only be sent out for these hosts if notifications are also enabled on a program-wide basis.'
p232
ssS'ENABLE_HOST_EVENT_HANDLER'
p233
(dp234
g3
(lp235
S'host_name'
p236
asg6
S'Enables the event handler for the specified host.'
p237
ssS'ENABLE_HOSTGROUP_SVC_NOTIFICATIONS'
p238
(dp239
g3
(lp240
S'hostgroup_name'
p241
asg6
S'Enables notifications for all services that are associated with hosts in a particular hostgroup.  This does not enable notifications for the hosts in the hostgroup - see the ENABLE_HOSTGROUP_HOST_NOTIFICATIONS command for that.  In order for notifications to be sent out for these services, notifications must be enabled on a program-wide basis as well.'
p242
ssS'ENABLE_SERVICEGROUP_SVC_CHECKS'
p243
(dp244
g3
(lp245
S'servicegroup_name'
p246
asg6
S'Enables active checks for all services in a particular servicegroup.'
p247
ssS'CHANGE_CONTACT_MODHATTR'
p248
(dp249
g3
(lp250
S'contact_name'
p251
aS'value'
p252
asg6
S'This command changes the modified host attributes value for the specified contact.  Modified attributes values are used by Nagios to determine which object properties should be retained across program restarts.  Thus, modifying the value of the attributes can affect data retention.  This is an advanced option and should only be used by people who are intimately familiar with the data retention logic in Nagios.'
p253
ssS'CHANGE_GLOBAL_SVC_EVENT_HANDLER'
p254
(dp255
g3
(lp256
S'event_handler_command'
p257
asg6
S'Changes the global service event handler command to be that specified by the "event_handler_command" option.  The "event_handler_command" option specifies the short name of the command that should be used as the new service event handler.  The command must have been configured in Nagios before it was last (re)started.'
p258
ssS'DISABLE_SERVICE_FRESHNESS_CHECKS'
p259
(dp260
g3
(lp261
sg6
S'Disables freshness checks of all services on a program-wide basis.'
p262
ssS'STOP_ACCEPTING_PASSIVE_HOST_CHECKS'
p263
(dp264
g3
(lp265
sg6
S'Disables acceptance and processing of passive host checks on a program-wide basis.'
p266
ssS'CHANGE_SVC_MODATTR'
p267
(dp268
g3
(lp269
S'host_name'
p270
aS'service_description'
p271
aS'value'
p272
asg6
S'This command changes the modified attributes value for the specified service.  Modified attributes values are used by Nagios to determine which object properties should be retained across program restarts.  Thus, modifying the value of the attributes can affect data retention.  This is an advanced option and should only be used by people who are intimately familiar with the data retention logic in Nagios.'
p273
ssS'SCHEDULE_HOSTGROUP_SVC_DOWNTIME'
p274
(dp275
g3
(lp276
S'hostgroup_name'
p277
aS'start_time'
p278
aS'end_time'
p279
aS'fixed'
p280
aS'trigger_id'
p281
aS'duration'
p282
aS'author'
p283
aS'comment'
p284
asg6
S'Schedules downtime for all services associated with hosts in a specified servicegroup.  If the "fixed" argument is set to one (1), downtime will start and end at the times specified by the "start" and "end" arguments.  Otherwise, downtime will begin between the "start" and "end" times and last for "duration" seconds.  The "start" and "end" arguments are specified in time_t format (seconds since the UNIX epoch).  The service downtime entries can be triggered by another downtime entry if the "trigger_id" is set to the ID of another scheduled downtime entry.  Set the "trigger_id" argument to zero (0) if the downtime for the services should not be triggered by another downtime entry.'
p285
ssS'ENABLE_HOSTGROUP_HOST_NOTIFICATIONS'
p286
(dp287
g3
(lp288
S'hostgroup_name'
p289
asg6
S'Enables notifications for all hosts in a particular hostgroup.  This does not enable notifications for the services associated with the hosts in the hostgroup - see the ENABLE_HOSTGROUP_SVC_NOTIFICATIONS command for that.  In order for notifications to be sent out for these hosts, notifications must be enabled on a program-wide basis as well.'
p290
ssS'DISABLE_HOSTGROUP_PASSIVE_SVC_CHECKS'
p291
(dp292
g3
(lp293
S'hostgroup_name'
p294
asg6
S'Disables passive checks for all services associated with hosts in a particular hostgroup.'
p295
ssS'CHANGE_NORMAL_HOST_CHECK_INTERVAL'
p296
(dp297
g3
(lp298
S'host_name'
p299
aS'check_interval'
p300
asg6
S'Changes the normal (regularly scheduled) check interval for a particular host.'
p301
ssS'DISABLE_EVENT_HANDLERS'
p302
(dp303
g3
(lp304
sg6
S'Disables host and service event handlers on a program-wide basis.'
p305
ssS'STOP_OBSESSING_OVER_SVC_CHECKS'
p306
(dp307
g3
(lp308
sg6
S'Disables processing of service checks via the OCSP command on a program-wide basis.'
p309
ssS'DEL_HOST_COMMENT'
p310
(dp311
g3
(lp312
S'comment_id'
p313
asg6
S'Deletes a host comment.  The id number of the comment that is to be deleted must be specified.'
p314
ssS'CHANGE_HOST_MODATTR'
p315
(dp316
g3
(lp317
S'host_name'
p318
aS'value'
p319
asg6
S'This command changes the modified attributes value for the specified host.  Modified attributes values are used by Nagios to determine which object properties should be retained across program restarts.  Thus, modifying the value of the attributes can affect data retention.  This is an advanced option and should only be used by people who are intimately familiar with the data retention logic in Nagios.'
p320
ssS'ENABLE_HOST_NOTIFICATIONS'
p321
(dp322
g3
(lp323
S'host_name'
p324
asg6
S'Enables notifications for a particular host.  Notifications will be sent out for the host only if notifications are enabled on a program-wide basis as well.'
p325
ssS'STOP_EXECUTING_HOST_CHECKS'
p326
(dp327
g3
(lp328
sg6
S'Disables active host checks on a program-wide basis.'
p329
ssS'DISABLE_SVC_FLAP_DETECTION'
p330
(dp331
g3
(lp332
S'host_name'
p333
aS'service_description'
p334
asg6
S'Disables flap detection for the specified service.'
p335
ssS'DEL_ALL_HOST_COMMENTS'
p336
(dp337
g3
(lp338
S'host_name'
p339
asg6
S'Deletes all comments assocated with a particular host.'
p340
ssS'DISABLE_PASSIVE_SVC_CHECKS'
p341
(dp342
g3
(lp343
S'host_name'
p344
aS'service_description'
p345
asg6
S'Disables passive checks for the specified service.'
p346
ssS'START_ACCEPTING_PASSIVE_HOST_CHECKS'
p347
(dp348
g3
(lp349
sg6
S'Enables acceptance and processing of passive host checks on a program-wide basis.'
p350
ssS'ENABLE_SERVICE_FRESHNESS_CHECKS'
p351
(dp352
g3
(lp353
sg6
S'Enables freshness checks of all services on a program-wide basis.  Individual services that have freshness checks disabled will not be checked for freshness.'
p354
ssS'START_OBSESSING_OVER_SVC'
p355
(dp356
g3
(lp357
S'host_name'
p358
aS'service_description'
p359
asg6
S'Enables processing of service checks via the OCSP command for the specified service.'
p360
ssS'SCHEDULE_HOSTGROUP_HOST_DOWNTIME'
p361
(dp362
g3
(lp363
S'hostgroup_name'
p364
aS'start_time'
p365
aS'end_time'
p366
aS'fixed'
p367
aS'trigger_id'
p368
aS'duration'
p369
aS'author'
p370
aS'comment'
p371
asg6
S'Schedules downtime for all hosts in a specified hostgroup.  If the "fixed" argument is set to one (1), downtime will start and end at the times specified by the "start" and "end" arguments.  Otherwise, downtime will begin between the "start" and "end" times and last for "duration" seconds.  The "start" and "end" arguments are specified in time_t format (seconds since the UNIX epoch).  The host downtime entries can be triggered by another downtime entry if the "trigger_id" is set to the ID of another scheduled downtime entry.  Set the "trigger_id" argument to zero (0) if the downtime for the hosts should not be triggered by another downtime entry.'
p372
ssS'CHANGE_HOST_CHECK_TIMEPERIOD'
p373
(dp374
g3
(lp375
S'host_name'
p376
aS'check_timeperod'
p377
asg6
S'Changes the check timeperiod for a particular host to what is specified by the "check_timeperiod" option.  The "check_timeperiod" option should be the short name of the timeperod that is to be used as the host check timeperiod.  The timeperiod must have been configured in Nagios before it was last (re)started.'
p378
ssS'DEL_SVC_DOWNTIME'
p379
(dp380
g3
(lp381
S'downtime_id'
p382
asg6
S'Deletes the service downtime entry that has an ID number matching the "downtime_id" argument.  If the downtime is currently in effect, the service will come out of scheduled downtime (as long as there are no other overlapping active downtime entries).'
p383
ssS'ENABLE_SVC_FLAP_DETECTION'
p384
(dp385
g3
(lp386
S'host_name'
p387
aS'service_description'
p388
asg6
S'Enables flap detection for the specified service.  In order for the flap detection algorithms to be run for the service, flap detection must be enabled on a program-wide basis as well.'
p389
ssS'ENABLE_SVC_NOTIFICATIONS'
p390
(dp391
g3
(lp392
S'host_name'
p393
aS'service_description'
p394
asg6
S'Enables notifications for a particular service.  Notifications will be sent out for the service only if notifications are enabled on a program-wide basis as well.'
p395
ssS'SCHEDULE_SVC_CHECK'
p396
(dp397
g3
(lp398
S'host_name'
p399
aS'service_description'
p400
aS'check_time'
p401
asg6
S'Schedules the next active check of a specified service at "check_time".  The "check_time" argument is specified in time_t format (seconds since the UNIX epoch).  Note that the service may not actually be checked at the time you specify.  This could occur for a number of reasons: active checks are disabled on a program-wide or service-specific basis, the service is already scheduled to be checked at an earlier time, etc.  If you want to force the service check to occur at the time you specify, look at the SCHEDULE_FORCED_SVC_CHECK command.'
p402
ssS'CHANGE_SVC_CHECK_COMMAND'
p403
(dp404
g3
(lp405
S'host_name'
p406
aS'service_description'
p407
aS'check_command'
p408
asg6
S'Changes the check command for a particular service to be that specified by the "check_command" option.  The "check_command" option specifies the short name of the command that should be used as the new service check command.  The command must have been configured in Nagios before it was last (re)started.'
p409
ssS'CHANGE_HOST_EVENT_HANDLER'
p410
(dp411
g3
(lp412
S'host_name'
p413
aS'event_handler_command'
p414
asg6
S'Changes the event handler command for a particular host to be that specified by the "event_handler_command" option.  The "event_handler_command" option specifies the short name of the command that should be used as the new host event handler.  The command must have been configured in Nagios before it was last (re)started.'
p415
ssS'PROCESS_SERVICE_CHECK_RESULT'
p416
(dp417
g3
(lp418
S'host_name'
p419
aS'service_description'
p420
aS'return_code'
p421
aS'plugin_output'
p422
asg6
S'This is used to submit a passive check result for a particular service.  The "return_code" field should be one of the following: 0=OK, 1=WARNING, 2=CRITICAL, 3=UNKNOWN.  The "plugin_output" field contains text output from the service check, along with optional performance data.'
p423
ssS'SCHEDULE_FORCED_HOST_CHECK'
p424
(dp425
g3
(lp426
S'host_name'
p427
aS'check_time'
p428
asg6
S'Schedules a forced active check of a particular host at "check_time".  The "check_time" argument is specified in time_t format (seconds since the UNIX epoch).   Forced checks are performed regardless of what time it is (e.g. timeperiod restrictions are ignored) and whether or not active checks are enabled on a host-specific or program-wide basis.'
p429
ssS'REMOVE_HOST_ACKNOWLEDGEMENT'
p430
(dp431
g3
(lp432
S'host_name'
p433
asg6
S'This removes the problem acknowledgement for a particular host.  Once the acknowledgement has been removed, notifications can once again be sent out for the given host.'
p434
ssS'ENABLE_SERVICEGROUP_HOST_NOTIFICATIONS'
p435
(dp436
g3
(lp437
S'servicegroup_name'
p438
asg6
S'Enables notifications for all hosts that have services that are members of a particular servicegroup.  In order for notifications to be sent out for these hosts, notifications must also be enabled on a program-wide basis.'
p439
ssS'DISABLE_SVC_EVENT_HANDLER'
p440
(dp441
g3
(lp442
S'host_name'
p443
aS'service_description'
p444
asg6
S'Disables the event handler for the specified service.'
p445
ssS'ENABLE_HOSTGROUP_SVC_CHECKS'
p446
(dp447
g3
(lp448
S'hostgroup_name'
p449
asg6
S'Enables active checks for all services associated with hosts in a particular hostgroup.'
p450
ssS'SCHEDULE_SVC_DOWNTIME'
p451
(dp452
g3
(lp453
S'host_name'
p454
aS'service_desription><start_time'
p455
aS'end_time'
p456
aS'fixed'
p457
aS'trigger_id'
p458
aS'duration'
p459
aS'author'
p460
aS'comment'
p461
asg6
S'Schedules downtime for a specified service.  If the "fixed" argument is set to one (1), downtime will start and end at the times specified by the "start" and "end" arguments.  Otherwise, downtime will begin between the "start" and "end" times and last for "duration" seconds.  The "start" and "end" arguments are specified in time_t format (seconds since the UNIX epoch).  The specified service downtime can be triggered by another downtime entry if the "trigger_id" is set to the ID of another scheduled downtime entry.  Set the "trigger_id" argument to zero (0) if the downtime for the specified service should not be triggered by another downtime entry.'
p462
ssS'DEL_SVC_COMMENT'
p463
(dp464
g3
(lp465
S'comment_id'
p466
asg6
S'Deletes a service comment.  The id number of the comment that is to be deleted must be specified.'
p467
ssS'ENABLE_HOST_FRESHNESS_CHECKS'
p468
(dp469
g3
(lp470
sg6
S'Enables freshness checks of all hosts on a program-wide basis.  Individual hosts that have freshness checks disabled will not be checked for freshness.'
p471
ssS'DISABLE_FLAP_DETECTION'
p472
(dp473
g3
(lp474
sg6
S'Disables host and service flap detection on a program-wide basis.'
p475
ssS'ENABLE_EVENT_HANDLERS'
p476
(dp477
g3
(lp478
sg6
S'Enables host and service event handlers on a program-wide basis.'
p479
ssS'ENABLE_NOTIFICATIONS'
p480
(dp481
g3
(lp482
sg6
S'Enables host and service notifications on a program-wide basis.'
p483
ssS'PROCESS_FILE'
p484
(dp485
g3
(lp486
S'file_name'
p487
aS'delete'
p488
asg6
S'Directs Nagios to process all external commands that are found in the file specified by the <file_name> argument.  If the <delete> option is non-zero, the file will be deleted once it has been processes.  If the <delete> option is set to zero, the file is left untouched.'
p489
ssS'DISABLE_CONTACTGROUP_HOST_NOTIFICATIONS'
p490
(dp491
g3
(lp492
S'contactgroup_name'
p493
asg6
S'Disables host notifications for all contacts in a particular contactgroup.'
p494
ssS'DISABLE_HOST_SVC_CHECKS'
p495
(dp496
g3
(lp497
S'host_name'
p498
asg6
S'Enables active checks of all services on the specified host.'
p499
ssS'DEL_ALL_SVC_COMMENTS'
p500
(dp501
g3
(lp502
S'host_name'
p503
aS'service_description'
p504
asg6
S'Deletes all comments associated with a particular service.'
p505
ssS'SCHEDULE_AND_PROPAGATE_TRIGGERED_HOST_DOWNTIME'
p506
(dp507
g3
(lp508
S'host_name'
p509
aS'start_time'
p510
aS'end_time'
p511
aS'fixed'
p512
aS'trigger_id'
p513
aS'duration'
p514
aS'author'
p515
aS'comment'
p516
asg6
S'Schedules downtime for a specified host and all of its children (hosts).  If the "fixed" argument is set to one (1), downtime will start and end at the times specified by the "start" and "end" arguments.  Otherwise, downtime will begin between the "start" and "end" times and last for "duration" seconds.  The "start" and "end" arguments are specified in time_t format (seconds since the UNIX epoch).  Downtime for child hosts are all set to be triggered by the downtime for the specified (parent) host.  The specified (parent) host downtime can be triggered by another downtime entry if the "trigger_id" is set to the ID of another scheduled downtime entry.  Set the "trigger_id" argument to zero (0) if the downtime for the specified (parent) host should not be triggered by another downtime entry.'
p517
ssS'SET_HOST_NOTIFICATION_NUMBER'
p518
(dp519
g3
(lp520
S'host_name'
p521
aS'notification_number'
p522
asg6
S'Sets the current notification number for a particular host.  A value of 0 indicates that no notification has yet been sent for the current host problem.  Useful for forcing an escalation (based on notification number) or replicating notification information in redundant monitoring environments. Notification numbers greater than zero have no noticeable affect on the notification process if the host is currently in an UP state.'
p523
ssS'ENABLE_FLAP_DETECTION'
p524
(dp525
g3
(lp526
sg6
S'Enables host and service flap detection on a program-wide basis.'
p527
ssS'ENABLE_HOSTGROUP_PASSIVE_HOST_CHECKS'
p528
(dp529
g3
(lp530
S'hostgroup_name'
p531
asg6
S'Enables passive checks for all hosts in a particular hostgroup.'
p532
ssS'SCHEDULE_SERVICEGROUP_HOST_DOWNTIME'
p533
(dp534
g3
(lp535
S'servicegroup_name'
p536
aS'start_time'
p537
aS'end_time'
p538
aS'fixed'
p539
aS'trigger_id'
p540
aS'duration'
p541
aS'author'
p542
aS'comment'
p543
asg6
S'Schedules downtime for all hosts that have services in a specified servicegroup.  If the "fixed" argument is set to one (1), downtime will start and end at the times specified by the "start" and "end" arguments.  Otherwise, downtime will begin between the "start" and "end" times and last for "duration" seconds.  The "start" and "end" arguments are specified in time_t format (seconds since the UNIX epoch).  The host downtime entries can be triggered by another downtime entry if the "trigger_id" is set to the ID of another scheduled downtime entry.  Set the "trigger_id" argument to zero (0) if the downtime for the hosts should not be triggered by another downtime entry.'
p544
ssS'SCHEDULE_FORCED_HOST_SVC_CHECKS'
p545
(dp546
g3
(lp547
S'host_name'
p548
aS'check_time'
p549
asg6
S'Schedules a forced active check of all services associated with a particular host at "check_time".  The "check_time" argument is specified in time_t format (seconds since the UNIX epoch).   Forced checks are performed regardless of what time it is (e.g. timeperiod restrictions are ignored) and whether or not active checks are enabled on a service-specific or program-wide basis.'
p550
ssS'CHANGE_CONTACT_SVC_NOTIFICATION_TIMEPERIOD'
p551
(dp552
g3
(lp553
S'contact_name'
p554
aS'notification_timeperiod'
p555
asg6
S'Changes the service notification timeperiod for a particular contact to what is specified by the "notification_timeperiod" option.  The "notification_timeperiod" option should be the short name of the timeperiod that is to be used as the contact\'s service notification timeperiod.  The timeperiod must have been configured in Nagios before it was last (re)started.'
p556
ssS'ADD_HOST_COMMENT'
p557
(dp558
g3
(lp559
S'host_name'
p560
aS'persistent'
p561
aS'author'
p562
aS'comment'
p563
asg6
S'Adds a comment to a particular host.  If the "persistent" field is set to zero (0), the comment will be deleted the next time Nagios is restarted.  Otherwise, the comment will persist across program restarts until it is deleted manually.'
p564
ssS'ENABLE_CONTACTGROUP_SVC_NOTIFICATIONS'
p565
(dp566
g3
(lp567
S'contactgroup_name'
p568
asg6
S'Enables service notifications for all contacts in a particular contactgroup.'
p569
ssS'ENABLE_SERVICEGROUP_SVC_NOTIFICATIONS'
p570
(dp571
g3
(lp572
S'servicegroup_name'
p573
asg6
S'Enables notifications for all services that are members of a particular servicegroup.  In order for notifications to be sent out for these services, notifications must also be enabled on a program-wide basis.'
p574
ssS'ENABLE_SERVICEGROUP_PASSIVE_SVC_CHECKS'
p575
(dp576
g3
(lp577
S'servicegroup_name'
p578
asg6
S'Enables the acceptance and processing of passive checks for all services in a particular servicegroup.'
p579
ssS'CHANGE_CONTACT_MODSATTR'
p580
(dp581
g3
(lp582
S'contact_name'
p583
aS'value'
p584
asg6
S'This command changes the modified service attributes value for the specified contact.  Modified attributes values are used by Nagios to determine which object properties should be retained across program restarts.  Thus, modifying the value of the attributes can affect data retention.  This is an advanced option and should only be used by people who are intimately familiar with the data retention logic in Nagios.'
p585
ssS'DISABLE_SERVICEGROUP_PASSIVE_HOST_CHECKS'
p586
(dp587
g3
(lp588
S'servicegroup_name'
p589
asg6
S'Disables the acceptance and processing of passive checks for all hosts that have services that are members of a particular service group.'
p590
ssS'START_EXECUTING_HOST_CHECKS'
p591
(dp592
g3
(lp593
sg6
S'Enables active host checks on a program-wide basis.'
p594
ssS'SCHEDULE_HOST_DOWNTIME'
p595
(dp596
g3
(lp597
S'host_name'
p598
aS'start_time'
p599
aS'end_time'
p600
aS'fixed'
p601
aS'trigger_id'
p602
aS'duration'
p603
aS'author'
p604
aS'comment'
p605
asg6
S'Schedules downtime for a specified host.  If the "fixed" argument is set to one (1), downtime will start and end at the times specified by the "start" and "end" arguments.  Otherwise, downtime will begin between the "start" and "end" times and last for "duration" seconds.  The "start" and "end" arguments are specified in time_t format (seconds since the UNIX epoch).  The specified host downtime can be triggered by another downtime entry if the "trigger_id" is set to the ID of another scheduled downtime entry.  Set the "trigger_id" argument to zero (0) if the downtime for the specified host should not be triggered by another downtime entry.'
p606
ssS'STOP_ACCEPTING_PASSIVE_SVC_CHECKS'
p607
(dp608
g3
(lp609
sg6
S'Disables passive service checks on a program-wide basis.'
p610
ssS'CHANGE_SVC_NOTIFICATION_TIMEPERIOD'
p611
(dp612
g3
(lp613
S'host_name'
p614
aS'service_description'
p615
aS'notification_timeperiod'
p616
asg6
S'Changes the notification timeperiod for a particular service to what is specified by the "notification_timeperiod" option.  The "notification_timeperiod" option should be the short name of the timeperiod that is to be used as the service notification timeperiod.  The timeperiod must have been configured in Nagios before it was last (re)started.'
p617
ssS'ENABLE_HOST_SVC_NOTIFICATIONS'
p618
(dp619
g3
(lp620
S'host_name'
p621
asg6
S'Enables notifications for all services on the specified host.  Note that notifications will not be sent out if notifications are disabled on a program-wide basis.'
p622
ssS'SCHEDULE_SERVICEGROUP_SVC_DOWNTIME'
p623
(dp624
g3
(lp625
S'servicegroup_name'
p626
aS'start_time'
p627
aS'end_time'
p628
aS'fixed'
p629
aS'trigger_id'
p630
aS'duration'
p631
aS'author'
p632
aS'comment'
p633
asg6
S'Schedules downtime for all services in a specified servicegroup.  If the "fixed" argument is set to one (1), downtime will start and end at the times specified by the "start" and "end" arguments.  Otherwise, downtime will begin between the "start" and "end" times and last for "duration" seconds.  The "start" and "end" arguments are specified in time_t format (seconds since the UNIX epoch).  The service downtime entries can be triggered by another downtime entry if the "trigger_id" is set to the ID of another scheduled downtime entry.  Set the "trigger_id" argument to zero (0) if the downtime for the services should not be triggered by another downtime entry.'
p634
ssS'START_ACCEPTING_PASSIVE_SVC_CHECKS'
p635
(dp636
g3
(lp637
sg6
S'Enables passive service checks on a program-wide basis.'
p638
ssS'CHANGE_RETRY_HOST_CHECK_INTERVAL'
p639
(dp640
g3
(lp641
S'host_name'
p642
aS'service_description'
p643
aS'check_interval'
p644
asg6
S'Changes the retry check interval for a particular host.'
p645
ssS'ACKNOWLEDGE_HOST_PROBLEM'
p646
(dp647
g3
(lp648
S'host_name'
p649
aS'sticky'
p650
aS'notify'
p651
aS'persistent'
p652
aS'author'
p653
aS'comment'
p654
asg6
S'Allows you to acknowledge the current problem for the specified host.  By acknowledging the current problem, future notifications (for the same host state) are disabled.  If the "sticky" option is set to one (1), the acknowledgement will remain until the host returns to an UP state.  Otherwise the acknowledgement will automatically be removed when the host changes state.  If the "notify" option is set to one (1), a notification will be sent out to contacts indicating that the current host problem has been acknowledged.  If the "persistent" option is set to one (1), the comment associated with the acknowledgement will survive across restarts of the Nagios process.  If not, the comment will be deleted the next time Nagios restarts.'
p655
ssS'SCHEDULE_AND_PROPAGATE_HOST_DOWNTIME'
p656
(dp657
g3
(lp658
S'host_name'
p659
aS'start_time'
p660
aS'end_time'
p661
aS'fixed'
p662
aS'trigger_id'
p663
aS'duration'
p664
aS'author'
p665
aS'comment'
p666
asg6
S'Schedules downtime for a specified host and all of its children (hosts).  If the "fixed" argument is set to one (1), downtime will start and end at the times specified by the "start" and "end" arguments.  Otherwise, downtime will begin between the "start" and "end" times and last for "duration" seconds.  The "start" and "end" arguments are specified in time_t format (seconds since the UNIX epoch).  The specified (parent) host downtime can be triggered by another downtime entry if the "trigger_id" is set to the ID of another scheduled downtime entry.  Set the "trigger_id" argument to zero (0) if the downtime for the specified (parent) host should not be triggered by another downtime entry.'
p667
ssS'DISABLE_PERFORMANCE_DATA'
p668
(dp669
g3
(lp670
sg6
S'Disables the processing of host and service performance data on a program-wide basis.'
p671
ssS'CHANGE_CUSTOM_HOST_VAR'
p672
(dp673
g3
(lp674
S'host_name'
p675
aS'varname'
p676
aS'varvalue'
p677
asg6
S'Changes the value of a custom host variable.'
p678
ssS'CHANGE_MAX_HOST_CHECK_ATTEMPTS'
p679
(dp680
g3
(lp681
S'host_name'
p682
aS'check_attempts'
p683
asg6
S'Changes the maximum number of check attempts (retries) for a particular host.'
p684
ssS'SHUTDOWN_PROGRAM'
p685
(dp686
g3
(lp687
sg6
S'Shuts down the Nagios process.'
p688
ssS'SET_SVC_NOTIFICATION_NUMBER'
p689
(dp690
g3
(lp691
S'host_name'
p692
aS'service_description'
p693
aS'notification_number'
p694
asg6
S'Sets the current notification number for a particular service.  A value of 0 indicates that no notification has yet been sent for the current service problem.  Useful for forcing an escalation (based on notification number) or replicating notification information in redundant monitoring environments. Notification numbers greater than zero have no noticeable affect on the notification process if the service is currently in an OK state.'
p695
ssS'DISABLE_SVC_NOTIFICATIONS'
p696
(dp697
g3
(lp698
S'host_name'
p699
aS'service_description'
p700
asg6
S'Disables notifications for a particular service.'
p701
ssS'STOP_OBSESSING_OVER_HOST'
p702
(dp703
g3
(lp704
S'host_name'
p705
asg6
S'Disables processing of host checks via the OCHP command for the specified host.'
p706
ssS'DEL_HOST_DOWNTIME'
p707
(dp708
g3
(lp709
S'downtime_id'
p710
asg6
S'Deletes the host downtime entry that has an ID number matching the "downtime_id" argument.  If the downtime is currently in effect, the host will come out of scheduled downtime (as long as there are no other overlapping active downtime entries).'
p711
ssS'START_OBSESSING_OVER_HOST'
p712
(dp713
g3
(lp714
S'host_name'
p715
asg6
S'Enables processing of host checks via the OCHP command for the specified host.'
p716
ssS'ENABLE_PERFORMANCE_DATA'
p717
(dp718
g3
(lp719
sg6
S'Enables the processing of host and service performance data on a program-wide basis.'
p720
ssS'DISABLE_SVC_CHECK'
p721
(dp722
g3
(lp723
S'host_name'
p724
aS'service_description'
p725
asg6
S'Disables active checks for a particular service.'
p726
ssS'ENABLE_PASSIVE_SVC_CHECKS'
p727
(dp728
g3
(lp729
S'host_name'
p730
aS'service_description'
p731
asg6
S'Enables passive checks for the specified service.'
p732
ssS'DISABLE_HOSTGROUP_HOST_CHECKS'
p733
(dp734
g3
(lp735
S'hostgroup_name'
p736
asg6
S'Disables active checks for all hosts in a particular hostgroup.'
p737
ssS'ENABLE_HOST_FLAP_DETECTION'
p738
(dp739
g3
(lp740
S'host_name'
p741
asg6
S'Enables flap detection for the specified host.  In order for the flap detection algorithms to be run for the host, flap detection must be enabled on a program-wide basis as well.'
p742
ssS'SCHEDULE_FORCED_SVC_CHECK'
p743
(dp744
g3
(lp745
S'host_name'
p746
aS'service_description'
p747
aS'check_time'
p748
asg6
S'Schedules a forced active check of a particular service at "check_time".  The "check_time" argument is specified in time_t format (seconds since the UNIX epoch).   Forced checks are performed regardless of what time it is (e.g. timeperiod restrictions are ignored) and whether or not active checks are enabled on a service-specific or program-wide basis.'
p749
ssS'DISABLE_SERVICEGROUP_SVC_NOTIFICATIONS'
p750
(dp751
g3
(lp752
S'servicegroup_name'
p753
asg6
S'Disables notifications for all services that are members of a particular servicegroup.'
p754
ssS'SAVE_STATE_INFORMATION'
p755
(dp756
g3
(lp757
sg6
S'Causes Nagios to save all current monitoring status information to the state retention file.  Normally, state retention information is saved before the Nagios process shuts down and (potentially) at regularly scheduled intervals.  This command allows you to force Nagios to save this information to the state retention file immediately.  This does not affect the current status information in the Nagios process.'
p758
ssS'READ_STATE_INFORMATION'
p759
(dp760
g3
(lp761
sg6
S'Causes Nagios to load all current monitoring status information from the state retention file.  Normally, state retention information is loaded when the Nagios process starts up and before it starts monitoring.  WARNING: This command will cause Nagios to discard all current monitoring status information and use the information stored in state retention file!  Use with care.'
p762
ssS'START_OBSESSING_OVER_HOST_CHECKS'
p763
(dp764
g3
(lp765
sg6
S'Enables processing of host checks via the OCHP command on a program-wide basis.'
p766
ssS'DISABLE_ALL_NOTIFICATIONS_BEYOND_HOST'
p767
(dp768
g3
(lp769
S'host_name'
p770
asg6
S'Disables notifications for all hosts and services "beyond" (e.g. on all child hosts of) the specified host.  The current notification setting for the specified host is not affected.'
p771
ssS'DISABLE_HOSTGROUP_SVC_CHECKS'
p772
(dp773
g3
(lp774
S'hostgroup_name'
p775
asg6
S'Disables active checks for all services associated with hosts in a particular hostgroup.'
p776
ssS'STOP_EXECUTING_SVC_CHECKS'
p777
(dp778
g3
(lp779
sg6
S'Disables active checks of services on a program-wide basis.'
p780
ssS'ENABLE_SERVICEGROUP_HOST_CHECKS'
p781
(dp782
g3
(lp783
S'servicegroup_name'
p784
asg6
S'Enables active checks for all hosts that have services that are members of a particular hostgroup.'
p785
ssS'CHANGE_NORMAL_SVC_CHECK_INTERVAL'
p786
(dp787
g3
(lp788
S'host_name'
p789
aS'service_description'
p790
aS'check_interval'
p791
asg6
S'Changes the normal (regularly scheduled) check interval for a particular service'
p792
ssS'ENABLE_HOSTGROUP_HOST_CHECKS'
p793
(dp794
g3
(lp795
S'hostgroup_name'
p796
asg6
S'Enables active checks for all hosts in a particular hostgroup.'
p797
ssS'ENABLE_SVC_EVENT_HANDLER'
p798
(dp799
g3
(lp800
S'host_name'
p801
aS'service_description'
p802
asg6
S'Enables the event handler for the specified service.'
p803
ssS'SEND_CUSTOM_SVC_NOTIFICATION'
p804
(dp805
g3
(lp806
S'host_name'
p807
aS'service_description'
p808
aS'options'
p809
aS'author'
p810
aS'comment'
p811
asg6
S'Allows you to send a custom service notification.  Very useful in dire situations, emergencies or to communicate with all admins that are responsible for a particular service.  When the service notification is sent out, the $NOTIFICATIONTYPE$ macro will be set to "CUSTOM".  The <options> field is a logical OR of the following integer values that affect aspects of the notification that are sent out: 0 = No option (default), 1 = Broadcast (send notification to all normal and all escalated contacts for the service), 2 = Forced (notification is sent out regardless of current time, whether or not notifications are enabled, etc.), 4 = Increment current notification # for the service(this is not done by default for custom notifications).   The comment field can be used with the\r\n$NOTIFICATIONCOMMENT$ macro in notification commands.'
p812
ssS'CHANGE_CONTACT_MODATTR'
p813
(dp814
g3
(lp815
S'contact_name'
p816
aS'value'
p817
asg6
S'This command changes the modified attributes value for the specified contact.  Modified attributes values are used by Nagios to determine which object properties should be retained across program restarts.  Thus, modifying the value of the attributes can affect data retention.  This is an advanced option and should only be used by people who are intimately familiar with the data retention logic in Nagios.'
p818
ssS'SEND_CUSTOM_HOST_NOTIFICATION'
p819
(dp820
g3
(lp821
S'host_name'
p822
aS'options'
p823
aS'author'
p824
aS'comment'
p825
asg6
S'Allows you to send a custom host notification.  Very useful in dire situations, emergencies or to communicate with all admins that are responsible for a particular host.  When the host notification is sent out, the $NOTIFICATIONTYPE$ macro will be set to "CUSTOM".  The <options> field is a logical OR of the following integer values that affect aspects of the notification that are sent out: 0 = No option (default), 1 = Broadcast (send notification to all normal and all escalated contacts for the host), 2 = Forced (notification is sent out regardless of current time, whether or not notifications are enabled, etc.), 4 = Increment current notification # for the host (this is not done by default for custom notifications).  The comment field can be used with the\r\n$NOTIFICATIONCOMMENT$ macro in notification commands.'
p826
ssS'START_EXECUTING_SVC_CHECKS'
p827
(dp828
g3
(lp829
sg6
S'Enables active checks of services on a program-wide basis.'
p830
ssS'REMOVE_SVC_ACKNOWLEDGEMENT'
p831
(dp832
g3
(lp833
S'host_name'
p834
aS'service_description'
p835
asg6
S'This removes the problem acknowledgement for a particular service.  Once the acknowledgement has been removed, notifications can once again be sent out for the given service.'
p836
ssS'DELAY_HOST_NOTIFICATION'
p837
(dp838
g3
(lp839
S'host_name'
p840
aS'notification_time'
p841
asg6
S'Delays the next notification for a parciular service until "notification_time".  The "notification_time" argument is specified in time_t format (seconds since the UNIX epoch).  Note that this will only have an affect if the service stays in the same problem state that it is currently in.  If the service changes to another state, a new notification may go out before the time you specify in the "notification_time" argument.'
p842
ssS'CHANGE_CUSTOM_CONTACT_VAR'
p843
(dp844
g3
(lp845
S'contact_name'
p846
aS'varname'
p847
aS'varvalue'
p848
asg6
S'Changes the value of a custom contact variable.'
p849
ssS'ENABLE_ALL_NOTIFICATIONS_BEYOND_HOST'
p850
(dp851
g3
(lp852
S'host_name'
p853
asg6
S'Enables notifications for all hosts and services "beyond" (e.g. on all child hosts of) the specified host.  The current notification setting for the specified host is not affected.  Notifications will only be sent out for these hosts and services if notifications are also enabled on a program-wide basis.'
p854
ssS'SCHEDULE_HOST_CHECK'
p855
(dp856
g3
(lp857
S'host_name'
p858
aS'check_time'
p859
asg6
S'Schedules the next active check of a particular host at "check_time".  The "check_time" argument is specified in time_t format (seconds since the UNIX epoch).  Note that the host may not actually be checked at the time you specify.  This could occur for a number of reasons: active checks are disabled on a program-wide or service-specific basis, the host is already scheduled to be checked at an earlier time, etc.  If you want to force the host check to occur at the time you specify, look at the SCHEDULE_FORCED_HOST_CHECK command.'
p860
ssS'DISABLE_SERVICEGROUP_HOST_NOTIFICATIONS'
p861
(dp862
g3
(lp863
S'servicegroup_name'
p864
asg6
S'Disables notifications for all hosts that have services that are members of a particular servicegroup.'
p865
ssS'PROCESS_HOST_CHECK_RESULT'
p866
(dp867
g3
(lp868
S'host_name'
p869
aS'status_code'
p870
aS'plugin_output'
p871
asg6
S'This is used to submit a passive check result for a particular host.  The "status_code" indicates the state of the host check and should be one of the following: 0=UP, 1=DOWN, 2=UNREACHABLE.  The "plugin_output" argument contains the text returned from the host check, along with optional performance data.'
p872
ssS'RESTART_PROGRAM'
p873
(dp874
g3
(lp875
sg6
S'Restarts the Nagios process.'
p876
ssS'STOP_OBSESSING_OVER_SVC'
p877
(dp878
g3
(lp879
S'host_name'
p880
aS'service_description'
p881
asg6
S'Disables processing of service checks via the OCSP command for the specified service.'
p882
ssS'DISABLE_SERVICEGROUP_SVC_CHECKS'
p883
(dp884
g3
(lp885
S'servicegroup_name'
p886
asg6
S'Disables active checks for all services in a particular servicegroup.'
p887
ssS'DISABLE_CONTACT_SVC_NOTIFICATIONS'
p888
(dp889
g3
(lp890
S'contact_name'
p891
asg6
S'Disables service notifications for a particular contact.'
p892
ssS'ADD_SVC_COMMENT'
p893
(dp894
g3
(lp895
S'host_name'
p896
aS'service_description'
p897
aS'persistent'
p898
aS'author'
p899
aS'comment'
p900
asg6
S'Adds a comment to a particular service.  If the "persistent" field is set to zero (0), the comment will be deleted the next time Nagios is restarted.  Otherwise, the comment will persist across program restarts until it is deleted manually.'
p901
ssS'DISABLE_CONTACT_HOST_NOTIFICATIONS'
p902
(dp903
g3
(lp904
S'contact_name'
p905
asg6
S'Disables host notifications for a particular contact.'
p906
ssS'DISABLE_PASSIVE_HOST_CHECKS'
p907
(dp908
g3
(lp909
S'host_name'
p910
asg6
S'Disables acceptance and processing of passive host checks for the specified host.'
p911
ss.